target datalayout = "e-m:e-p270:32:32-p271:32:32-p272:64:64-i64:64-i128:128-f80:128-n8:16:32:64-S128"
target triple = "x86_64-pc-linux-gnu"

%class.btVector3 = type { [4 x float] }

; Function Attrs: inlinehint mustprogress nounwind uwtable
define linkonce_odr dso_local noundef ptr @_ZNK9btVector3cvPKfEv(ptr noundef nonnull align 4 dereferenceable(16) %0) #4 comdat align 2 {
  %2 = alloca ptr, align 8
  store ptr %0, ptr %2, align 8, !tbaa !52
  %3 = load ptr, ptr %2, align 8
  %4 = getelementptr inbounds nuw %class.btVector3, ptr %3, i32 0, i32 0
  %5 = getelementptr inbounds [4 x float], ptr %4, i64 0, i64 0
  ret ptr %5
}

; Function Attrs: inlinehint mustprogress nounwind uwtable
define linkonce_odr dso_local noundef float @_Z6btFabsf(float noundef %0) #4 comdat {
  %2 = alloca float, align 4
  store float %0, ptr %2, align 4, !tbaa !14
  %3 = load float, ptr %2, align 4, !tbaa !14
  %4 = call float @llvm.fabs.f32(float %3)
  ret float %4
}

; Function Attrs: mustprogress uwtable
define linkonce_odr dso_local noundef nonnull align 4 dereferenceable(4) ptr @_ZNK24btInverseDynamicsBullet34vec3clEi(ptr noundef nonnull align 4 dereferenceable(16) %0, i32 noundef %1) #2 comdat align 2 {
  %3 = alloca ptr, align 8
  %4 = alloca i32, align 4
  store ptr %0, ptr %3, align 8, !tbaa !12
  store i32 %1, ptr %4, align 4, !tbaa !9
  %5 = load ptr, ptr %3, align 8
  %6 = call noundef ptr @_ZNK9btVector3cvPKfEv(ptr noundef nonnull align 4 dereferenceable(16) %5)
  %7 = load i32, ptr %4, align 4, !tbaa !9
  %8 = sext i32 %7 to i64
  %9 = getelementptr inbounds float, ptr %6, i64 %8
  ret ptr %9
}

; Function Attrs: mustprogress uwtable
define dso_local noundef zeroext i1 @_ZN24btInverseDynamicsBullet312isUnitVectorERKNS_4vec3E(ptr noundef nonnull align 4 dereferenceable(16) %0) #2 {
  %2 = alloca ptr, align 8
  store ptr %0, ptr %2, align 8, !tbaa !12
  %3 = load ptr, ptr %2, align 8, !tbaa !12
  %4 = call noundef nonnull align 4 dereferenceable(4) ptr @_ZNK24btInverseDynamicsBullet34vec3clEi(ptr noundef nonnull align 4 dereferenceable(16) %3, i32 noundef 0)
  %5 = load float, ptr %4, align 4, !tbaa !14
  %6 = load ptr, ptr %2, align 8, !tbaa !12
  %7 = call noundef nonnull align 4 dereferenceable(4) ptr @_ZNK24btInverseDynamicsBullet34vec3clEi(ptr noundef nonnull align 4 dereferenceable(16) %6, i32 noundef 0)
  %8 = load float, ptr %7, align 4, !tbaa !14
  %9 = load ptr, ptr %2, align 8, !tbaa !12
  %10 = call noundef nonnull align 4 dereferenceable(4) ptr @_ZNK24btInverseDynamicsBullet34vec3clEi(ptr noundef nonnull align 4 dereferenceable(16) %9, i32 noundef 1)
  %11 = load float, ptr %10, align 4, !tbaa !14
  %12 = load ptr, ptr %2, align 8, !tbaa !12
  %13 = call noundef nonnull align 4 dereferenceable(4) ptr @_ZNK24btInverseDynamicsBullet34vec3clEi(ptr noundef nonnull align 4 dereferenceable(16) %12, i32 noundef 1)
  %14 = load float, ptr %13, align 4, !tbaa !14
  %15 = fmul float %11, %14
  %16 = call float @llvm.fmuladd.f32(float %5, float %8, float %15)
  %17 = load ptr, ptr %2, align 8, !tbaa !12
  %18 = call noundef nonnull align 4 dereferenceable(4) ptr @_ZNK24btInverseDynamicsBullet34vec3clEi(ptr noundef nonnull align 4 dereferenceable(16) %17, i32 noundef 2)
  %19 = load float, ptr %18, align 4, !tbaa !14
  %20 = load ptr, ptr %2, align 8, !tbaa !12
  %21 = call noundef nonnull align 4 dereferenceable(4) ptr @_ZNK24btInverseDynamicsBullet34vec3clEi(ptr noundef nonnull align 4 dereferenceable(16) %20, i32 noundef 2)
  %22 = load float, ptr %21, align 4, !tbaa !14
  %23 = call float @llvm.fmuladd.f32(float %19, float %22, float %16)
  %24 = fpext float %23 to double
  %25 = fsub double %24, 1.000000e+00
  %26 = fptrunc double %25 to float
  %27 = call noundef float @_Z6btFabsf(float noundef %26)
  %28 = fcmp olt float %27, 0x3EA4000000000000
  ret i1 %28
}