; Function Attrs: mustprogress nofree norecurse nosync nounwind willreturn memory(argmem: read) uwtable
define dso_local noundef zeroext i1 @_ZN24btInverseDynamicsBullet312isUnitVectorERKNS_4vec3E(ptr noundef nonnull readonly align 4 captures(none) dereferenceable(16) %0) local_unnamed_addr #4 {
  %2 = load float, ptr %0, align 4, !tbaa !4
  %3 = getelementptr inbounds nuw i8, ptr %0, i64 4
  %4 = load float, ptr %3, align 4, !tbaa !4
  %5 = fmul float %4, %4
  %6 = tail call float @llvm.fmuladd.f32(float %2, float %2, float %5)
  %7 = getelementptr inbounds nuw i8, ptr %0, i64 8
  %8 = load float, ptr %7, align 4, !tbaa !4
  %9 = tail call float @llvm.fmuladd.f32(float %8, float %8, float %6)
  %10 = fadd float %9, -1.000000e+00
  %11 = tail call noundef float @llvm.fabs.f32(float %10)
  %12 = fcmp olt float %11, 0x3EA4000000000000
  ret i1 %12
}